target datalayout = "e-m:e-p270:32:32-p271:32:32-p272:64:64-i64:64-i128:128-f80:128-n8:16:32:64-S128"
target triple = "x86_64-pc-linux-gnu"

%struct._zend_op = type { ptr, %union._znode_op, %union._znode_op, %union._znode_op, i32, i32, i8, i8, i8, i8 }
%union._znode_op = type { i32 }
%struct._zend_ssa_op = type { i32, i32, i32, i32, i32, i32, i32, i32, i32 }
%struct._zend_op_array = type { i8, [3 x i8], i32, ptr, ptr, ptr, i32, i32, ptr, ptr, ptr, ptr, i32, ptr, i32, i32, i32, ptr, ptr, ptr, ptr, ptr, i32, i32, ptr, ptr, ptr, i32, i32, i32, i32, ptr, ptr, [6 x ptr] }
%struct._zend_ssa = type { %struct._zend_cfg, i32, i32, ptr, ptr, ptr, ptr }
%struct._zend_cfg = type { i32, i32, ptr, ptr, ptr, i32 }
%struct._zend_basic_block = type { ptr, i32, i32, i32, i32, i32, i32, i32, i32, i32, i32, i32, [2 x i32] }
%struct._zend_ssa_phi = type { ptr, i32, %union._zend_ssa_pi_constraint, i32, i32, i32, i8, ptr, ptr, ptr }
%union._zend_ssa_pi_constraint = type { %struct._zend_ssa_range_constraint }
%struct._zend_ssa_range_constraint = type { %struct._zend_ssa_range, i32, i32, i32, i32, i32 }
%struct._zend_ssa_range = type { i64, i64, i8, i8 }
%struct._zend_ssa_block = type { ptr }
%struct._zend_ssa_var = type { i32, i32, i32, i32, ptr, ptr, ptr, i8 }

; Function Attrs: alwaysinline nounwind uwtable
define internal void @_zend_ssa_remove_def(ptr noundef %0) #1 {
  %2 = alloca ptr, align 8
  store ptr %0, ptr %2, align 8, !tbaa !117
  %3 = load ptr, ptr %2, align 8, !tbaa !117
  %4 = getelementptr inbounds nuw %struct._zend_ssa_var, ptr %3, i32 0, i32 2
  %5 = load i32, ptr %4, align 8, !tbaa !121
  %6 = icmp sge i32 %5, 0
  call void @llvm.assume(i1 %6)
  %7 = load ptr, ptr %2, align 8, !tbaa !117
  %8 = getelementptr inbounds nuw %struct._zend_ssa_var, ptr %7, i32 0, i32 3
  %9 = load i32, ptr %8, align 4, !tbaa !122
  %10 = icmp slt i32 %9, 0
  call void @llvm.assume(i1 %10)
  %11 = load ptr, ptr %2, align 8, !tbaa !117
  %12 = getelementptr inbounds nuw %struct._zend_ssa_var, ptr %11, i32 0, i32 5
  %13 = load ptr, ptr %12, align 8, !tbaa !128
  %14 = icmp ne ptr %13, null
  %15 = xor i1 %14, true
  call void @llvm.assume(i1 %15)
  %16 = load ptr, ptr %2, align 8, !tbaa !117
  %17 = getelementptr inbounds nuw %struct._zend_ssa_var, ptr %16, i32 0, i32 2
  store i32 -1, ptr %17, align 8, !tbaa !121
  ret void
}

; Function Attrs: alwaysinline nounwind uwtable
define internal void @zend_ssa_remove_result_def(ptr noundef %0, ptr noundef %1) #1 {
  %3 = alloca ptr, align 8
  %4 = alloca ptr, align 8
  %5 = alloca ptr, align 8
  store ptr %0, ptr %3, align 8, !tbaa !48
  store ptr %1, ptr %4, align 8, !tbaa !13
  call void @llvm.lifetime.start.p0(i64 8, ptr %5) #13
  %6 = load ptr, ptr %3, align 8, !tbaa !48
  %7 = getelementptr inbounds nuw %struct._zend_ssa, ptr %6, i32 0, i32 5
  %8 = load ptr, ptr %7, align 8, !tbaa !116
  %9 = load ptr, ptr %4, align 8, !tbaa !13
  %10 = getelementptr inbounds nuw %struct._zend_ssa_op, ptr %9, i32 0, i32 5
  %11 = load i32, ptr %10, align 4, !tbaa !43
  %12 = sext i32 %11 to i64
  %13 = getelementptr inbounds %struct._zend_ssa_var, ptr %8, i64 %12
  store ptr %13, ptr %5, align 8, !tbaa !117
  %14 = load ptr, ptr %5, align 8, !tbaa !117
  call void @_zend_ssa_remove_def(ptr noundef %14)
  %15 = load ptr, ptr %4, align 8, !tbaa !13
  %16 = getelementptr inbounds nuw %struct._zend_ssa_op, ptr %15, i32 0, i32 5
  store i32 -1, ptr %16, align 4, !tbaa !43
  call void @llvm.lifetime.end.p0(i64 8, ptr %5) #13
  ret void
}

; Function Attrs: alwaysinline nounwind uwtable
define internal void @zend_ssa_remove_op2_def(ptr noundef %0, ptr noundef %1) #1 {
  %3 = alloca ptr, align 8
  %4 = alloca ptr, align 8
  %5 = alloca ptr, align 8
  store ptr %0, ptr %3, align 8, !tbaa !48
  store ptr %1, ptr %4, align 8, !tbaa !13
  call void @llvm.lifetime.start.p0(i64 8, ptr %5) #13
  %6 = load ptr, ptr %3, align 8, !tbaa !48
  %7 = getelementptr inbounds nuw %struct._zend_ssa, ptr %6, i32 0, i32 5
  %8 = load ptr, ptr %7, align 8, !tbaa !116
  %9 = load ptr, ptr %4, align 8, !tbaa !13
  %10 = getelementptr inbounds nuw %struct._zend_ssa_op, ptr %9, i32 0, i32 4
  %11 = load i32, ptr %10, align 4, !tbaa !27
  %12 = sext i32 %11 to i64
  %13 = getelementptr inbounds %struct._zend_ssa_var, ptr %8, i64 %12
  store ptr %13, ptr %5, align 8, !tbaa !117
  %14 = load ptr, ptr %5, align 8, !tbaa !117
  call void @_zend_ssa_remove_def(ptr noundef %14)
  %15 = load ptr, ptr %4, align 8, !tbaa !13
  %16 = getelementptr inbounds nuw %struct._zend_ssa_op, ptr %15, i32 0, i32 4
  store i32 -1, ptr %16, align 4, !tbaa !27
  call void @llvm.lifetime.end.p0(i64 8, ptr %5) #13
  ret void
}

; Function Attrs: alwaysinline nounwind uwtable
define internal void @zend_ssa_remove_op1_def(ptr noundef %0, ptr noundef %1) #1 {
  %3 = alloca ptr, align 8
  %4 = alloca ptr, align 8
  %5 = alloca ptr, align 8
  store ptr %0, ptr %3, align 8, !tbaa !48
  store ptr %1, ptr %4, align 8, !tbaa !13
  call void @llvm.lifetime.start.p0(i64 8, ptr %5) #13
  %6 = load ptr, ptr %3, align 8, !tbaa !48
  %7 = getelementptr inbounds nuw %struct._zend_ssa, ptr %6, i32 0, i32 5
  %8 = load ptr, ptr %7, align 8, !tbaa !116
  %9 = load ptr, ptr %4, align 8, !tbaa !13
  %10 = getelementptr inbounds nuw %struct._zend_ssa_op, ptr %9, i32 0, i32 3
  %11 = load i32, ptr %10, align 4, !tbaa !28
  %12 = sext i32 %11 to i64
  %13 = getelementptr inbounds %struct._zend_ssa_var, ptr %8, i64 %12
  store ptr %13, ptr %5, align 8, !tbaa !117
  %14 = load ptr, ptr %5, align 8, !tbaa !117
  call void @_zend_ssa_remove_def(ptr noundef %14)
  %15 = load ptr, ptr %4, align 8, !tbaa !13
  %16 = getelementptr inbounds nuw %struct._zend_ssa_op, ptr %15, i32 0, i32 3
  store i32 -1, ptr %16, align 4, !tbaa !28
  call void @llvm.lifetime.end.p0(i64 8, ptr %5) #13
  ret void
}

; Function Attrs: nounwind uwtable
define hidden void @zend_ssa_remove_defs_of_instr(ptr noundef %0, ptr noundef %1) #0 {
  %3 = alloca ptr, align 8
  %4 = alloca ptr, align 8
  store ptr %0, ptr %3, align 8, !tbaa !48
  store ptr %1, ptr %4, align 8, !tbaa !13
  %5 = load ptr, ptr %4, align 8, !tbaa !13
  %6 = getelementptr inbounds nuw %struct._zend_ssa_op, ptr %5, i32 0, i32 3
  %7 = load i32, ptr %6, align 4, !tbaa !28
  %8 = icmp sge i32 %7, 0
  br i1 %8, label %9, label %16

9:                                                ; preds = %2
  %10 = load ptr, ptr %3, align 8, !tbaa !48
  %11 = load ptr, ptr %4, align 8, !tbaa !13
  %12 = getelementptr inbounds nuw %struct._zend_ssa_op, ptr %11, i32 0, i32 3
  %13 = load i32, ptr %12, align 4, !tbaa !28
  call void @zend_ssa_remove_uses_of_var(ptr noundef %10, i32 noundef %13)
  %14 = load ptr, ptr %3, align 8, !tbaa !48
  %15 = load ptr, ptr %4, align 8, !tbaa !13
  call void @zend_ssa_remove_op1_def(ptr noundef %14, ptr noundef %15)
  br label %16

16:                                               ; preds = %9, %2
  %17 = load ptr, ptr %4, align 8, !tbaa !13
  %18 = getelementptr inbounds nuw %struct._zend_ssa_op, ptr %17, i32 0, i32 4
  %19 = load i32, ptr %18, align 4, !tbaa !27
  %20 = icmp sge i32 %19, 0
  br i1 %20, label %21, label %28

21:                                               ; preds = %16
  %22 = load ptr, ptr %3, align 8, !tbaa !48
  %23 = load ptr, ptr %4, align 8, !tbaa !13
  %24 = getelementptr inbounds nuw %struct._zend_ssa_op, ptr %23, i32 0, i32 4
  %25 = load i32, ptr %24, align 4, !tbaa !27
  call void @zend_ssa_remove_uses_of_var(ptr noundef %22, i32 noundef %25)
  %26 = load ptr, ptr %3, align 8, !tbaa !48
  %27 = load ptr, ptr %4, align 8, !tbaa !13
  call void @zend_ssa_remove_op2_def(ptr noundef %26, ptr noundef %27)
  br label %28

28:                                               ; preds = %21, %16
  %29 = load ptr, ptr %4, align 8, !tbaa !13
  %30 = getelementptr inbounds nuw %struct._zend_ssa_op, ptr %29, i32 0, i32 5
  %31 = load i32, ptr %30, align 4, !tbaa !43
  %32 = icmp sge i32 %31, 0
  br i1 %32, label %33, label %40

33:                                               ; preds = %28
  %34 = load ptr, ptr %3, align 8, !tbaa !48
  %35 = load ptr, ptr %4, align 8, !tbaa !13
  %36 = getelementptr inbounds nuw %struct._zend_ssa_op, ptr %35, i32 0, i32 5
  %37 = load i32, ptr %36, align 4, !tbaa !43
  call void @zend_ssa_remove_uses_of_var(ptr noundef %34, i32 noundef %37)
  %38 = load ptr, ptr %3, align 8, !tbaa !48
  %39 = load ptr, ptr %4, align 8, !tbaa !13
  call void @zend_ssa_remove_result_def(ptr noundef %38, ptr noundef %39)
  br label %40

40:                                               ; preds = %33, %28
  ret void
}

; Function Attrs: nounwind uwtable
define hidden void @zend_ssa_remove_block(ptr noundef %0, ptr noundef %1, i32 noundef %2) #0 {
  %4 = alloca ptr, align 8
  %5 = alloca ptr, align 8
  %6 = alloca i32, align 4
  %7 = alloca ptr, align 8
  %8 = alloca ptr, align 8
  %9 = alloca ptr, align 8
  %10 = alloca i32, align 4
  store ptr %0, ptr %4, align 8, !tbaa !4
  store ptr %1, ptr %5, align 8, !tbaa !48
  store i32 %2, ptr %6, align 4, !tbaa !11
  call void @llvm.lifetime.start.p0(i64 8, ptr %7) #13
  %11 = load ptr, ptr %5, align 8, !tbaa !48
  %12 = getelementptr inbounds nuw %struct._zend_ssa, ptr %11, i32 0, i32 0
  %13 = getelementptr inbounds nuw %struct._zend_cfg, ptr %12, i32 0, i32 2
  %14 = load ptr, ptr %13, align 8, !tbaa !50
  %15 = load i32, ptr %6, align 4, !tbaa !11
  %16 = sext i32 %15 to i64
  %17 = getelementptr inbounds %struct._zend_basic_block, ptr %14, i64 %16
  store ptr %17, ptr %7, align 8, !tbaa !57
  call void @llvm.lifetime.start.p0(i64 8, ptr %8) #13
  %18 = load ptr, ptr %5, align 8, !tbaa !48
  %19 = getelementptr inbounds nuw %struct._zend_ssa, ptr %18, i32 0, i32 3
  %20 = load ptr, ptr %19, align 8, !tbaa !62
  %21 = load i32, ptr %6, align 4, !tbaa !11
  %22 = sext i32 %21 to i64
  %23 = getelementptr inbounds %struct._zend_ssa_block, ptr %20, i64 %22
  store ptr %23, ptr %8, align 8, !tbaa !61
  call void @llvm.lifetime.start.p0(i64 8, ptr %9) #13
  call void @llvm.lifetime.start.p0(i64 4, ptr %10) #13
  %24 = load ptr, ptr %7, align 8, !tbaa !57
  %25 = getelementptr inbounds nuw %struct._zend_basic_block, ptr %24, i32 0, i32 1
  %26 = load i32, ptr %25, align 8, !tbaa !75
  %27 = and i32 %26, 2147483647
  store i32 %27, ptr %25, align 8, !tbaa !75
  %28 = load ptr, ptr %8, align 8, !tbaa !61
  %29 = getelementptr inbounds nuw %struct._zend_ssa_block, ptr %28, i32 0, i32 0
  %30 = load ptr, ptr %29, align 8, !tbaa !111
  store ptr %30, ptr %9, align 8, !tbaa !85
  br label %31

31:                                               ; preds = %41, %3
  %32 = load ptr, ptr %9, align 8, !tbaa !85
  %33 = icmp ne ptr %32, null
  br i1 %33, label %34, label %45

34:                                               ; preds = %31
  %35 = load ptr, ptr %5, align 8, !tbaa !48
  %36 = load ptr, ptr %9, align 8, !tbaa !85
  %37 = getelementptr inbounds nuw %struct._zend_ssa_phi, ptr %36, i32 0, i32 4
  %38 = load i32, ptr %37, align 4, !tbaa !93
  call void @zend_ssa_remove_uses_of_var(ptr noundef %35, i32 noundef %38)
  %39 = load ptr, ptr %5, align 8, !tbaa !48
  %40 = load ptr, ptr %9, align 8, !tbaa !85
  call void @zend_ssa_remove_phi(ptr noundef %39, ptr noundef %40)
  br label %41

41:                                               ; preds = %34
  %42 = load ptr, ptr %9, align 8, !tbaa !85
  %43 = getelementptr inbounds nuw %struct._zend_ssa_phi, ptr %42, i32 0, i32 0
  %44 = load ptr, ptr %43, align 8, !tbaa !95
  store ptr %44, ptr %9, align 8, !tbaa !85
  br label %31

45:                                               ; preds = %31
  %46 = load ptr, ptr %7, align 8, !tbaa !57
  %47 = getelementptr inbounds nuw %struct._zend_basic_block, ptr %46, i32 0, i32 2
  %48 = load i32, ptr %47, align 4, !tbaa !103
  store i32 %48, ptr %10, align 4, !tbaa !11
  br label %49

49:                                               ; preds = %92, %45
  %50 = load i32, ptr %10, align 4, !tbaa !11
  %51 = load ptr, ptr %7, align 8, !tbaa !57
  %52 = getelementptr inbounds nuw %struct._zend_basic_block, ptr %51, i32 0, i32 2
  %53 = load i32, ptr %52, align 4, !tbaa !103
  %54 = load ptr, ptr %7, align 8, !tbaa !57
  %55 = getelementptr inbounds nuw %struct._zend_basic_block, ptr %54, i32 0, i32 3
  %56 = load i32, ptr %55, align 8, !tbaa !104
  %57 = add i32 %53, %56
  %58 = icmp ult i32 %50, %57
  br i1 %58, label %59, label %95

59:                                               ; preds = %49
  %60 = load ptr, ptr %4, align 8, !tbaa !4
  %61 = getelementptr inbounds nuw %struct._zend_op_array, ptr %60, i32 0, i32 17
  %62 = load ptr, ptr %61, align 8, !tbaa !102
  %63 = load i32, ptr %10, align 4, !tbaa !11
  %64 = sext i32 %63 to i64
  %65 = getelementptr inbounds %struct._zend_op, ptr %62, i64 %64
  %66 = getelementptr inbounds nuw %struct._zend_op, ptr %65, i32 0, i32 6
  %67 = load i8, ptr %66, align 4, !tbaa !25
  %68 = zext i8 %67 to i32
  %69 = icmp eq i32 %68, 0
  br i1 %69, label %70, label %71

70:                                               ; preds = %59
  br label %92

71:                                               ; preds = %59
  %72 = load ptr, ptr %5, align 8, !tbaa !48
  %73 = load ptr, ptr %5, align 8, !tbaa !48
  %74 = getelementptr inbounds nuw %struct._zend_ssa, ptr %73, i32 0, i32 4
  %75 = load ptr, ptr %74, align 8, !tbaa !97
  %76 = load i32, ptr %10, align 4, !tbaa !11
  %77 = sext i32 %76 to i64
  %78 = getelementptr inbounds %struct._zend_ssa_op, ptr %75, i64 %77
  call void @zend_ssa_remove_defs_of_instr(ptr noundef %72, ptr noundef %78)
  %79 = load ptr, ptr %5, align 8, !tbaa !48
  %80 = load ptr, ptr %4, align 8, !tbaa !4
  %81 = getelementptr inbounds nuw %struct._zend_op_array, ptr %80, i32 0, i32 17
  %82 = load ptr, ptr %81, align 8, !tbaa !102
  %83 = load i32, ptr %10, align 4, !tbaa !11
  %84 = sext i32 %83 to i64
  %85 = getelementptr inbounds %struct._zend_op, ptr %82, i64 %84
  %86 = load ptr, ptr %5, align 8, !tbaa !48
  %87 = getelementptr inbounds nuw %struct._zend_ssa, ptr %86, i32 0, i32 4
  %88 = load ptr, ptr %87, align 8, !tbaa !97
  %89 = load i32, ptr %10, align 4, !tbaa !11
  %90 = sext i32 %89 to i64
  %91 = getelementptr inbounds %struct._zend_ssa_op, ptr %88, i64 %90
  call void @zend_ssa_remove_instr(ptr noundef %79, ptr noundef %85, ptr noundef %91)
  br label %92

92:                                               ; preds = %71, %70
  %93 = load i32, ptr %10, align 4, !tbaa !11
  %94 = add nsw i32 %93, 1
  store i32 %94, ptr %10, align 4, !tbaa !11
  br label %49

95:                                               ; preds = %49
  %96 = load ptr, ptr %5, align 8, !tbaa !48
  %97 = load i32, ptr %6, align 4, !tbaa !11
  call void @zend_ssa_remove_block_from_cfg(ptr noundef %96, i32 noundef %97)
  call void @llvm.lifetime.end.p0(i64 4, ptr %10) #13
  call void @llvm.lifetime.end.p0(i64 8, ptr %9) #13
  call void @llvm.lifetime.end.p0(i64 8, ptr %8) #13
  call void @llvm.lifetime.end.p0(i64 8, ptr %7) #13
  ret void
}