; Function Attrs: nofree nosync nounwind memory(readwrite, inaccessiblemem: write) uwtable
define hidden void @zend_ssa_remove_block(ptr noundef readonly captures(none) %0, ptr noundef readonly captures(none) %1, i32 noundef %2) local_unnamed_addr #9 {
  %4 = getelementptr inbounds nuw i8, ptr %1, i64 8
  %5 = load ptr, ptr %4, align 8, !tbaa !38
  %6 = sext i32 %2 to i64
  %7 = getelementptr inbounds %struct._zend_basic_block, ptr %5, i64 %6
  %8 = getelementptr inbounds nuw i8, ptr %1, i64 48
  %9 = load ptr, ptr %8, align 8, !tbaa !59
  %10 = getelementptr inbounds %struct._zend_ssa_block, ptr %9, i64 %6
  %11 = getelementptr inbounds nuw i8, ptr %7, i64 8
  %12 = load i32, ptr %11, align 8, !tbaa !73
  %13 = and i32 %12, 2147483647
  store i32 %13, ptr %11, align 8, !tbaa !73
  %.02829 = load ptr, ptr %10, align 8, !tbaa !103
  %.not30 = icmp eq ptr %.02829, null
  br i1 %.not30, label %._crit_edge, label %.lr.ph

.lr.ph:                                           ; preds = %3, %.lr.ph
  %.02831 = phi ptr [ %.028, %.lr.ph ], [ %.02829, %3 ]
  %14 = getelementptr inbounds nuw i8, ptr %.02831, i64 68
  %15 = load i32, ptr %14, align 4, !tbaa !102
  tail call void @zend_ssa_remove_uses_of_var(ptr noundef %1, i32 noundef %15)
  tail call void @zend_ssa_remove_phi(ptr noundef %1, ptr noundef nonnull %.02831)
  %.028 = load ptr, ptr %.02831, align 8, !tbaa !103
  %.not = icmp eq ptr %.028, null
  br i1 %.not, label %._crit_edge, label %.lr.ph

._crit_edge:                                      ; preds = %.lr.ph, %3
  %16 = getelementptr inbounds nuw i8, ptr %7, i64 12
  %17 = load i32, ptr %16, align 4, !tbaa !70
  %18 = getelementptr inbounds nuw i8, ptr %7, i64 16
  %19 = load i32, ptr %18, align 8, !tbaa !72
  %20 = add i32 %19, %17
  %21 = icmp ult i32 %17, %20
  br i1 %21, label %.lr.ph34, label %._crit_edge35

.lr.ph34:                                         ; preds = %._crit_edge
  %22 = getelementptr inbounds nuw i8, ptr %0, i64 104
  %23 = getelementptr inbounds nuw i8, ptr %1, i64 56
  %24 = getelementptr inbounds nuw i8, ptr %1, i64 64
  %25 = sext i32 %17 to i64
  br label %26

26:                                               ; preds = %.lr.ph34, %90
  %27 = phi i32 [ %19, %.lr.ph34 ], [ %91, %90 ]
  %28 = phi i32 [ %17, %.lr.ph34 ], [ %92, %90 ]
  %indvars.iv = phi i64 [ %25, %.lr.ph34 ], [ %indvars.iv.next, %90 ]
  %29 = load ptr, ptr %22, align 8, !tbaa !69
  %30 = getelementptr inbounds %struct._zend_op, ptr %29, i64 %indvars.iv, i32 6
  %31 = load i8, ptr %30, align 4, !tbaa !17
  %32 = icmp eq i8 %31, 0
  br i1 %32, label %90, label %33

33:                                               ; preds = %26
  %34 = load ptr, ptr %23, align 8, !tbaa !106
  %35 = getelementptr inbounds %struct._zend_ssa_op, ptr %34, i64 %indvars.iv
  %36 = getelementptr inbounds nuw i8, ptr %35, i64 12
  %37 = load i32, ptr %36, align 4, !tbaa !20
  %38 = icmp sgt i32 %37, -1
  br i1 %38, label %39, label %52

39:                                               ; preds = %33
  tail call void @zend_ssa_remove_uses_of_var(ptr noundef nonnull readonly %1, i32 noundef %37)
  %40 = load ptr, ptr %24, align 8, !tbaa !115
  %41 = load i32, ptr %36, align 4, !tbaa !20
  %42 = sext i32 %41 to i64
  %43 = getelementptr inbounds %struct._zend_ssa_var, ptr %40, i64 %42
  %44 = getelementptr inbounds nuw i8, ptr %43, i64 8
  %45 = load i32, ptr %44, align 8, !tbaa !119
  %46 = icmp sgt i32 %45, -1
  tail call void @llvm.assume(i1 %46)
  %47 = getelementptr inbounds nuw i8, ptr %43, i64 12
  %48 = load i32, ptr %47, align 4, !tbaa !120
  %49 = icmp slt i32 %48, 0
  tail call void @llvm.assume(i1 %49)
  %50 = getelementptr inbounds nuw i8, ptr %43, i64 24
  %51 = load ptr, ptr %50, align 8, !tbaa !126
  %.not.i18.i = icmp eq ptr %51, null
  tail call void @llvm.assume(i1 %.not.i18.i)
  store i32 -1, ptr %44, align 8, !tbaa !119
  store i32 -1, ptr %36, align 4, !tbaa !20
  br label %52

52:                                               ; preds = %39, %33
  %53 = getelementptr inbounds nuw i8, ptr %35, i64 16
  %54 = load i32, ptr %53, align 4, !tbaa !19
  %55 = icmp sgt i32 %54, -1
  br i1 %55, label %56, label %69

56:                                               ; preds = %52
  tail call void @zend_ssa_remove_uses_of_var(ptr noundef nonnull readonly %1, i32 noundef %54)
  %57 = load ptr, ptr %24, align 8, !tbaa !115
  %58 = load i32, ptr %53, align 4, !tbaa !19
  %59 = sext i32 %58 to i64
  %60 = getelementptr inbounds %struct._zend_ssa_var, ptr %57, i64 %59
  %61 = getelementptr inbounds nuw i8, ptr %60, i64 8
  %62 = load i32, ptr %61, align 8, !tbaa !119
  %63 = icmp sgt i32 %62, -1
  tail call void @llvm.assume(i1 %63)
  %64 = getelementptr inbounds nuw i8, ptr %60, i64 12
  %65 = load i32, ptr %64, align 4, !tbaa !120
  %66 = icmp slt i32 %65, 0
  tail call void @llvm.assume(i1 %66)
  %67 = getelementptr inbounds nuw i8, ptr %60, i64 24
  %68 = load ptr, ptr %67, align 8, !tbaa !126
  %.not.i17.i = icmp eq ptr %68, null
  tail call void @llvm.assume(i1 %.not.i17.i)
  store i32 -1, ptr %61, align 8, !tbaa !119
  store i32 -1, ptr %53, align 4, !tbaa !19
  br label %69

69:                                               ; preds = %56, %52
  %70 = getelementptr inbounds nuw i8, ptr %35, i64 20
  %71 = load i32, ptr %70, align 4, !tbaa !37
  %72 = icmp sgt i32 %71, -1
  br i1 %72, label %73, label %zend_ssa_remove_defs_of_instr.exit

73:                                               ; preds = %69
  tail call void @zend_ssa_remove_uses_of_var(ptr noundef nonnull readonly %1, i32 noundef %71)
  %74 = load ptr, ptr %24, align 8, !tbaa !115
  %75 = load i32, ptr %70, align 4, !tbaa !37
  %76 = sext i32 %75 to i64
  %77 = getelementptr inbounds %struct._zend_ssa_var, ptr %74, i64 %76
  %78 = getelementptr inbounds nuw i8, ptr %77, i64 8
  %79 = load i32, ptr %78, align 8, !tbaa !119
  %80 = icmp sgt i32 %79, -1
  tail call void @llvm.assume(i1 %80)
  %81 = getelementptr inbounds nuw i8, ptr %77, i64 12
  %82 = load i32, ptr %81, align 4, !tbaa !120
  %83 = icmp slt i32 %82, 0
  tail call void @llvm.assume(i1 %83)
  %84 = getelementptr inbounds nuw i8, ptr %77, i64 24
  %85 = load ptr, ptr %84, align 8, !tbaa !126
  %.not.i.i = icmp eq ptr %85, null
  tail call void @llvm.assume(i1 %.not.i.i)
  store i32 -1, ptr %78, align 8, !tbaa !119
  store i32 -1, ptr %70, align 4, !tbaa !37
  br label %zend_ssa_remove_defs_of_instr.exit

zend_ssa_remove_defs_of_instr.exit:               ; preds = %69, %73
  %86 = load ptr, ptr %22, align 8, !tbaa !69
  %87 = getelementptr inbounds %struct._zend_op, ptr %86, i64 %indvars.iv
  %88 = load ptr, ptr %23, align 8, !tbaa !106
  %89 = getelementptr inbounds %struct._zend_ssa_op, ptr %88, i64 %indvars.iv
  tail call void @zend_ssa_remove_instr(ptr noundef nonnull %1, ptr noundef %87, ptr noundef %89)
  %.pre = load i32, ptr %16, align 4, !tbaa !70
  %.pre37 = load i32, ptr %18, align 8, !tbaa !72
  br label %90

90:                                               ; preds = %26, %zend_ssa_remove_defs_of_instr.exit
  %91 = phi i32 [ %27, %26 ], [ %.pre37, %zend_ssa_remove_defs_of_instr.exit ]
  %92 = phi i32 [ %28, %26 ], [ %.pre, %zend_ssa_remove_defs_of_instr.exit ]
  %indvars.iv.next = add nuw nsw i64 %indvars.iv, 1
  %93 = add i32 %91, %92
  %94 = trunc nsw i64 %indvars.iv.next to i32
  %95 = icmp ugt i32 %93, %94
  br i1 %95, label %26, label %._crit_edge35

._crit_edge35:                                    ; preds = %90, %._crit_edge
  tail call void @zend_ssa_remove_block_from_cfg(ptr noundef %1, i32 noundef %2)
  ret void
}